; Function Attrs: nounwind uwtable
define noalias noundef ptr @Ivy_ManLevelize(ptr noundef readonly captures(none) %0) local_unnamed_addr #0 {
  %2 = tail call noalias dereferenceable_or_null(16) ptr @malloc(i64 noundef 16) #14
  %3 = getelementptr inbounds nuw i8, ptr %2, i64 4
  store i32 0, ptr %3, align 4, !tbaa !43
  store i32 100, ptr %2, align 8, !tbaa !45
  %4 = tail call noalias dereferenceable_or_null(800) ptr @malloc(i64 noundef 800) #14
  %5 = getelementptr inbounds nuw i8, ptr %2, i64 8
  store ptr %4, ptr %5, align 8, !tbaa !46
  %6 = getelementptr inbounds nuw i8, ptr %0, i64 24
  %7 = load ptr, ptr %6, align 8, !tbaa !28
  %8 = getelementptr i8, ptr %7, i64 4
  %.val13 = load i32, ptr %8, align 4, !tbaa !26
  %9 = icmp sgt i32 %.val13, 0
  br i1 %9, label %.lr.ph, label %.critedge

.lr.ph:                                           ; preds = %1, %76
  %10 = phi ptr [ %77, %76 ], [ %7, %1 ]
  %11 = phi i32 [ %78, %76 ], [ 100, %1 ]
  %12 = phi i32 [ %79, %76 ], [ 0, %1 ]
  %indvars.iv = phi i64 [ %indvars.iv.next, %76 ], [ 0, %1 ]
  %13 = getelementptr i8, ptr %10, i64 8
  %.val11 = load ptr, ptr %13, align 8, !tbaa !29
  %14 = getelementptr inbounds nuw ptr, ptr %.val11, i64 %indvars.iv
  %15 = load ptr, ptr %14, align 8, !tbaa !30
  %16 = icmp eq ptr %15, null
  br i1 %16, label %76, label %17

17:                                               ; preds = %.lr.ph
  %18 = getelementptr i8, ptr %15, i64 8
  %.val12 = load i32, ptr %18, align 8
  %19 = and i32 %.val12, 15
  %20 = add nsw i32 %19, -7
  %narrow.i = icmp ult i32 %20, -2
  br i1 %narrow.i, label %76, label %21

21:                                               ; preds = %17
  %22 = lshr i32 %.val12, 11
  %23 = add nuw nsw i32 %22, 1
  %.not.i = icmp sgt i32 %12, %22
  %.val.i.pre16 = load ptr, ptr %5, align 8, !tbaa !46
  br i1 %.not.i, label %39, label %24

24:                                               ; preds = %21
  %.not.i.not.i = icmp sgt i32 %11, %22
  br i1 %.not.i.not.i, label %Vec_PtrGrow.exit.i, label %25

25:                                               ; preds = %24
  %.not9.i.i = icmp eq ptr %.val.i.pre16, null
  %26 = shl nuw nsw i32 %23, 3
  %27 = zext nneg i32 %26 to i64
  br i1 %.not9.i.i, label %30, label %28

28:                                               ; preds = %25
  %29 = tail call ptr @realloc(ptr noundef nonnull %.val.i.pre16, i64 noundef %27) #13
  br label %32

30:                                               ; preds = %25
  %31 = tail call noalias ptr @malloc(i64 noundef %27) #14
  br label %32

32:                                               ; preds = %30, %28
  %33 = phi ptr [ %29, %28 ], [ %31, %30 ]
  store ptr %33, ptr %5, align 8, !tbaa !29
  store i32 %23, ptr %2, align 8, !tbaa !39
  br label %Vec_PtrGrow.exit.i

Vec_PtrGrow.exit.i:                               ; preds = %32, %24
  %34 = phi ptr [ %33, %32 ], [ %.val.i.pre16, %24 ]
  %35 = phi i32 [ %23, %32 ], [ %11, %24 ]
  %36 = zext nneg i32 %12 to i64
  br label %37

37:                                               ; preds = %37, %Vec_PtrGrow.exit.i
  %indvars.iv.i = phi i64 [ %36, %Vec_PtrGrow.exit.i ], [ %indvars.iv.next.i, %37 ]
  %calloc.i.i = tail call noalias noundef dereferenceable_or_null(16) ptr @calloc(i64 1, i64 16)
  %38 = getelementptr inbounds nuw ptr, ptr %34, i64 %indvars.iv.i
  store ptr %calloc.i.i, ptr %38, align 8, !tbaa !30
  %indvars.iv.next.i = add nuw nsw i64 %indvars.iv.i, 1
  %lftr.wideiv.i = trunc i64 %indvars.iv.next.i to i32
  %exitcond.not.i = icmp eq i32 %23, %lftr.wideiv.i
  br i1 %exitcond.not.i, label %._crit_edge.i.loopexit, label %37, !llvm.loop !47

._crit_edge.i.loopexit:                           ; preds = %37
  store i32 %23, ptr %3, align 4, !tbaa !43
  %.val.i.pre = load ptr, ptr %5, align 8, !tbaa !46
  br label %39

39:                                               ; preds = %._crit_edge.i.loopexit, %21
  %.val.i = phi ptr [ %.val.i.pre, %._crit_edge.i.loopexit ], [ %.val.i.pre16, %21 ]
  %40 = phi i32 [ %35, %._crit_edge.i.loopexit ], [ %11, %21 ]
  %41 = phi i32 [ %23, %._crit_edge.i.loopexit ], [ %12, %21 ]
  %42 = zext nneg i32 %22 to i64
  %43 = getelementptr inbounds nuw ptr, ptr %.val.i, i64 %42
  %44 = load ptr, ptr %43, align 8, !tbaa !30
  %45 = getelementptr inbounds nuw i8, ptr %44, i64 4
  %46 = load i32, ptr %45, align 4, !tbaa !26
  %47 = load i32, ptr %44, align 8, !tbaa !39
  %48 = icmp eq i32 %46, %47
  br i1 %48, label %49, label %.Vec_PtrGrow.exit11_crit_edge.i.i

.Vec_PtrGrow.exit11_crit_edge.i.i:                ; preds = %39
  %.phi.trans.insert.i.i = getelementptr inbounds nuw i8, ptr %44, i64 8
  %.pre.i.i = load ptr, ptr %.phi.trans.insert.i.i, align 8, !tbaa !29
  br label %Vec_VecPush.exit

49:                                               ; preds = %39
  %50 = icmp slt i32 %46, 16
  br i1 %50, label %51, label %59

51:                                               ; preds = %49
  %52 = getelementptr inbounds nuw i8, ptr %44, i64 8
  %53 = load ptr, ptr %52, align 8, !tbaa !29
  %.not9.i.i.i = icmp eq ptr %53, null
  br i1 %.not9.i.i.i, label %56, label %54

54:                                               ; preds = %51
  %55 = tail call dereferenceable_or_null(128) ptr @realloc(ptr noundef nonnull %53, i64 noundef 128) #13
  br label %Vec_PtrGrow.exit.i.i

56:                                               ; preds = %51
  %57 = tail call noalias dereferenceable_or_null(128) ptr @malloc(i64 noundef 128) #14
  br label %Vec_PtrGrow.exit.i.i

Vec_PtrGrow.exit.i.i:                             ; preds = %56, %54
  %58 = phi ptr [ %55, %54 ], [ %57, %56 ]
  store ptr %58, ptr %52, align 8, !tbaa !29
  store i32 16, ptr %44, align 8, !tbaa !39
  br label %Vec_VecPush.exit

59:                                               ; preds = %49
  %60 = shl nuw nsw i32 %46, 1
  %61 = getelementptr inbounds nuw i8, ptr %44, i64 8
  %62 = load ptr, ptr %61, align 8, !tbaa !29
  %.not9.i10.i.i = icmp eq ptr %62, null
  %63 = zext nneg i32 %60 to i64
  %64 = shl nuw nsw i64 %63, 3
  br i1 %.not9.i10.i.i, label %67, label %65

65:                                               ; preds = %59
  %66 = tail call ptr @realloc(ptr noundef nonnull %62, i64 noundef %64) #13
  br label %69

67:                                               ; preds = %59
  %68 = tail call noalias ptr @malloc(i64 noundef %64) #14
  br label %69

69:                                               ; preds = %67, %65
  %70 = phi ptr [ %66, %65 ], [ %68, %67 ]
  store ptr %70, ptr %61, align 8, !tbaa !29
  store i32 %60, ptr %44, align 8, !tbaa !39
  br label %Vec_VecPush.exit

Vec_VecPush.exit:                                 ; preds = %.Vec_PtrGrow.exit11_crit_edge.i.i, %Vec_PtrGrow.exit.i.i, %69
  %71 = phi ptr [ %.pre.i.i, %.Vec_PtrGrow.exit11_crit_edge.i.i ], [ %70, %69 ], [ %58, %Vec_PtrGrow.exit.i.i ]
  %72 = load i32, ptr %45, align 4, !tbaa !26
  %73 = add nsw i32 %72, 1
  store i32 %73, ptr %45, align 4, !tbaa !26
  %74 = sext i32 %72 to i64
  %75 = getelementptr inbounds ptr, ptr %71, i64 %74
  store ptr %15, ptr %75, align 8, !tbaa !30
  %.pre = load ptr, ptr %6, align 8, !tbaa !28
  br label %76

76:                                               ; preds = %.lr.ph, %Vec_VecPush.exit, %17
  %77 = phi ptr [ %10, %.lr.ph ], [ %.pre, %Vec_VecPush.exit ], [ %10, %17 ]
  %78 = phi i32 [ %11, %.lr.ph ], [ %40, %Vec_VecPush.exit ], [ %11, %17 ]
  %79 = phi i32 [ %12, %.lr.ph ], [ %41, %Vec_VecPush.exit ], [ %12, %17 ]
  %indvars.iv.next = add nuw nsw i64 %indvars.iv, 1
  %80 = getelementptr i8, ptr %77, i64 4
  %.val = load i32, ptr %80, align 4, !tbaa !26
  %81 = sext i32 %.val to i64
  %82 = icmp slt i64 %indvars.iv.next, %81
  br i1 %82, label %.lr.ph, label %.critedge, !llvm.loop !48

.critedge:                                        ; preds = %76, %1
  ret ptr %2
}